target datalayout = "e-m:e-p270:32:32-p271:32:32-p272:64:64-i64:64-i128:128-f80:128-n8:16:32:64-S128"
target triple = "x86_64-pc-linux-gnu"

%struct.AVTWOFISH = type { [40 x i32], [4 x i32], i32, [256 x i32], [256 x i32], [256 x i32], [256 x i32] }

; Function Attrs: nounwind uwtable
define internal i32 @MDS_mul(ptr noundef %0, i32 noundef %1) #0 {
  %3 = alloca ptr, align 8
  %4 = alloca i32, align 4
  store ptr %0, ptr %3, align 8, !tbaa !4
  store i32 %1, ptr %4, align 4, !tbaa !11
  %5 = load ptr, ptr %3, align 8, !tbaa !4
  %6 = getelementptr inbounds nuw %struct.AVTWOFISH, ptr %5, i32 0, i32 3
  %7 = load i32, ptr %4, align 4, !tbaa !11
  %8 = and i32 %7, 255
  %9 = zext i32 %8 to i64
  %10 = getelementptr inbounds nuw [256 x i32], ptr %6, i64 0, i64 %9
  %11 = load i32, ptr %10, align 4, !tbaa !11
  %12 = load ptr, ptr %3, align 8, !tbaa !4
  %13 = getelementptr inbounds nuw %struct.AVTWOFISH, ptr %12, i32 0, i32 4
  %14 = load i32, ptr %4, align 4, !tbaa !11
  %15 = lshr i32 %14, 8
  %16 = and i32 %15, 255
  %17 = zext i32 %16 to i64
  %18 = getelementptr inbounds nuw [256 x i32], ptr %13, i64 0, i64 %17
  %19 = load i32, ptr %18, align 4, !tbaa !11
  %20 = xor i32 %11, %19
  %21 = load ptr, ptr %3, align 8, !tbaa !4
  %22 = getelementptr inbounds nuw %struct.AVTWOFISH, ptr %21, i32 0, i32 5
  %23 = load i32, ptr %4, align 4, !tbaa !11
  %24 = lshr i32 %23, 16
  %25 = and i32 %24, 255
  %26 = zext i32 %25 to i64
  %27 = getelementptr inbounds nuw [256 x i32], ptr %22, i64 0, i64 %26
  %28 = load i32, ptr %27, align 4, !tbaa !11
  %29 = xor i32 %20, %28
  %30 = load ptr, ptr %3, align 8, !tbaa !4
  %31 = getelementptr inbounds nuw %struct.AVTWOFISH, ptr %30, i32 0, i32 6
  %32 = load i32, ptr %4, align 4, !tbaa !11
  %33 = lshr i32 %32, 24
  %34 = zext i32 %33 to i64
  %35 = getelementptr inbounds nuw [256 x i32], ptr %31, i64 0, i64 %34
  %36 = load i32, ptr %35, align 4, !tbaa !11
  %37 = xor i32 %29, %36
  ret i32 %37
}

; Function Attrs: nounwind uwtable
define internal void @twofish_encrypt(ptr noundef %0, ptr noundef %1, ptr noundef %2) #0 {
  %4 = alloca ptr, align 8
  %5 = alloca ptr, align 8
  %6 = alloca ptr, align 8
  %7 = alloca [4 x i32], align 16
  %8 = alloca i32, align 4
  %9 = alloca i32, align 4
  %10 = alloca i32, align 4
  store ptr %0, ptr %4, align 8, !tbaa !4
  store ptr %1, ptr %5, align 8, !tbaa !9
  store ptr %2, ptr %6, align 8, !tbaa !9
  call void @llvm.lifetime.start.p0(i64 16, ptr %7) #6
  call void @llvm.lifetime.start.p0(i64 4, ptr %8) #6
  call void @llvm.lifetime.start.p0(i64 4, ptr %9) #6
  call void @llvm.lifetime.start.p0(i64 4, ptr %10) #6
  %11 = load ptr, ptr %6, align 8, !tbaa !9
  %12 = load i32, ptr %11, align 1, !tbaa !15
  %13 = load ptr, ptr %4, align 8, !tbaa !4
  %14 = getelementptr inbounds nuw %struct.AVTWOFISH, ptr %13, i32 0, i32 0
  %15 = getelementptr inbounds [40 x i32], ptr %14, i64 0, i64 0
  %16 = load i32, ptr %15, align 4, !tbaa !11
  %17 = xor i32 %12, %16
  %18 = getelementptr inbounds [4 x i32], ptr %7, i64 0, i64 0
  store i32 %17, ptr %18, align 16, !tbaa !11
  %19 = load ptr, ptr %6, align 8, !tbaa !9
  %20 = getelementptr inbounds i8, ptr %19, i64 4
  %21 = load i32, ptr %20, align 1, !tbaa !15
  %22 = load ptr, ptr %4, align 8, !tbaa !4
  %23 = getelementptr inbounds nuw %struct.AVTWOFISH, ptr %22, i32 0, i32 0
  %24 = getelementptr inbounds [40 x i32], ptr %23, i64 0, i64 1
  %25 = load i32, ptr %24, align 4, !tbaa !11
  %26 = xor i32 %21, %25
  %27 = getelementptr inbounds [4 x i32], ptr %7, i64 0, i64 1
  store i32 %26, ptr %27, align 4, !tbaa !11
  %28 = load ptr, ptr %6, align 8, !tbaa !9
  %29 = getelementptr inbounds i8, ptr %28, i64 8
  %30 = load i32, ptr %29, align 1, !tbaa !15
  %31 = load ptr, ptr %4, align 8, !tbaa !4
  %32 = getelementptr inbounds nuw %struct.AVTWOFISH, ptr %31, i32 0, i32 0
  %33 = getelementptr inbounds [40 x i32], ptr %32, i64 0, i64 2
  %34 = load i32, ptr %33, align 4, !tbaa !11
  %35 = xor i32 %30, %34
  %36 = getelementptr inbounds [4 x i32], ptr %7, i64 0, i64 2
  store i32 %35, ptr %36, align 8, !tbaa !11
  %37 = load ptr, ptr %6, align 8, !tbaa !9
  %38 = getelementptr inbounds i8, ptr %37, i64 12
  %39 = load i32, ptr %38, align 1, !tbaa !15
  %40 = load ptr, ptr %4, align 8, !tbaa !4
  %41 = getelementptr inbounds nuw %struct.AVTWOFISH, ptr %40, i32 0, i32 0
  %42 = getelementptr inbounds [40 x i32], ptr %41, i64 0, i64 3
  %43 = load i32, ptr %42, align 4, !tbaa !11
  %44 = xor i32 %39, %43
  %45 = getelementptr inbounds [4 x i32], ptr %7, i64 0, i64 3
  store i32 %44, ptr %45, align 4, !tbaa !11
  store i32 0, ptr %10, align 4, !tbaa !11
  br label %46

46:                                               ; preds = %188, %3
  %47 = load i32, ptr %10, align 4, !tbaa !11
  %48 = icmp slt i32 %47, 16
  br i1 %48, label %49, label %191

49:                                               ; preds = %46
  %50 = load ptr, ptr %4, align 8, !tbaa !4
  %51 = getelementptr inbounds [4 x i32], ptr %7, i64 0, i64 0
  %52 = load i32, ptr %51, align 16, !tbaa !11
  %53 = call i32 @MDS_mul(ptr noundef %50, i32 noundef %52)
  store i32 %53, ptr %8, align 4, !tbaa !11
  %54 = load ptr, ptr %4, align 8, !tbaa !4
  %55 = getelementptr inbounds [4 x i32], ptr %7, i64 0, i64 1
  %56 = load i32, ptr %55, align 4, !tbaa !11
  %57 = shl i32 %56, 8
  %58 = getelementptr inbounds [4 x i32], ptr %7, i64 0, i64 1
  %59 = load i32, ptr %58, align 4, !tbaa !11
  %60 = lshr i32 %59, 24
  %61 = or i32 %57, %60
  %62 = call i32 @MDS_mul(ptr noundef %54, i32 noundef %61)
  store i32 %62, ptr %9, align 4, !tbaa !11
  %63 = getelementptr inbounds [4 x i32], ptr %7, i64 0, i64 2
  %64 = load i32, ptr %63, align 8, !tbaa !11
  %65 = load i32, ptr %8, align 4, !tbaa !11
  %66 = load i32, ptr %9, align 4, !tbaa !11
  %67 = add i32 %65, %66
  %68 = load ptr, ptr %4, align 8, !tbaa !4
  %69 = getelementptr inbounds nuw %struct.AVTWOFISH, ptr %68, i32 0, i32 0
  %70 = load i32, ptr %10, align 4, !tbaa !11
  %71 = mul nsw i32 2, %70
  %72 = add nsw i32 %71, 8
  %73 = sext i32 %72 to i64
  %74 = getelementptr inbounds [40 x i32], ptr %69, i64 0, i64 %73
  %75 = load i32, ptr %74, align 4, !tbaa !11
  %76 = add i32 %67, %75
  %77 = xor i32 %64, %76
  %78 = lshr i32 %77, 1
  %79 = getelementptr inbounds [4 x i32], ptr %7, i64 0, i64 2
  %80 = load i32, ptr %79, align 8, !tbaa !11
  %81 = load i32, ptr %8, align 4, !tbaa !11
  %82 = load i32, ptr %9, align 4, !tbaa !11
  %83 = add i32 %81, %82
  %84 = load ptr, ptr %4, align 8, !tbaa !4
  %85 = getelementptr inbounds nuw %struct.AVTWOFISH, ptr %84, i32 0, i32 0
  %86 = load i32, ptr %10, align 4, !tbaa !11
  %87 = mul nsw i32 2, %86
  %88 = add nsw i32 %87, 8
  %89 = sext i32 %88 to i64
  %90 = getelementptr inbounds [40 x i32], ptr %85, i64 0, i64 %89
  %91 = load i32, ptr %90, align 4, !tbaa !11
  %92 = add i32 %83, %91
  %93 = xor i32 %80, %92
  %94 = shl i32 %93, 31
  %95 = or i32 %78, %94
  %96 = getelementptr inbounds [4 x i32], ptr %7, i64 0, i64 2
  store i32 %95, ptr %96, align 8, !tbaa !11
  %97 = getelementptr inbounds [4 x i32], ptr %7, i64 0, i64 3
  %98 = load i32, ptr %97, align 4, !tbaa !11
  %99 = shl i32 %98, 1
  %100 = getelementptr inbounds [4 x i32], ptr %7, i64 0, i64 3
  %101 = load i32, ptr %100, align 4, !tbaa !11
  %102 = lshr i32 %101, 31
  %103 = or i32 %99, %102
  %104 = load i32, ptr %8, align 4, !tbaa !11
  %105 = load i32, ptr %9, align 4, !tbaa !11
  %106 = mul i32 2, %105
  %107 = add i32 %104, %106
  %108 = load ptr, ptr %4, align 8, !tbaa !4
  %109 = getelementptr inbounds nuw %struct.AVTWOFISH, ptr %108, i32 0, i32 0
  %110 = load i32, ptr %10, align 4, !tbaa !11
  %111 = mul nsw i32 2, %110
  %112 = add nsw i32 %111, 9
  %113 = sext i32 %112 to i64
  %114 = getelementptr inbounds [40 x i32], ptr %109, i64 0, i64 %113
  %115 = load i32, ptr %114, align 4, !tbaa !11
  %116 = add i32 %107, %115
  %117 = xor i32 %103, %116
  %118 = getelementptr inbounds [4 x i32], ptr %7, i64 0, i64 3
  store i32 %117, ptr %118, align 4, !tbaa !11
  %119 = load ptr, ptr %4, align 8, !tbaa !4
  %120 = getelementptr inbounds [4 x i32], ptr %7, i64 0, i64 2
  %121 = load i32, ptr %120, align 8, !tbaa !11
  %122 = call i32 @MDS_mul(ptr noundef %119, i32 noundef %121)
  store i32 %122, ptr %8, align 4, !tbaa !11
  %123 = load ptr, ptr %4, align 8, !tbaa !4
  %124 = getelementptr inbounds [4 x i32], ptr %7, i64 0, i64 3
  %125 = load i32, ptr %124, align 4, !tbaa !11
  %126 = shl i32 %125, 8
  %127 = getelementptr inbounds [4 x i32], ptr %7, i64 0, i64 3
  %128 = load i32, ptr %127, align 4, !tbaa !11
  %129 = lshr i32 %128, 24
  %130 = or i32 %126, %129
  %131 = call i32 @MDS_mul(ptr noundef %123, i32 noundef %130)
  store i32 %131, ptr %9, align 4, !tbaa !11
  %132 = getelementptr inbounds [4 x i32], ptr %7, i64 0, i64 0
  %133 = load i32, ptr %132, align 16, !tbaa !11
  %134 = load i32, ptr %8, align 4, !tbaa !11
  %135 = load i32, ptr %9, align 4, !tbaa !11
  %136 = add i32 %134, %135
  %137 = load ptr, ptr %4, align 8, !tbaa !4
  %138 = getelementptr inbounds nuw %struct.AVTWOFISH, ptr %137, i32 0, i32 0
  %139 = load i32, ptr %10, align 4, !tbaa !11
  %140 = mul nsw i32 2, %139
  %141 = add nsw i32 %140, 10
  %142 = sext i32 %141 to i64
  %143 = getelementptr inbounds [40 x i32], ptr %138, i64 0, i64 %142
  %144 = load i32, ptr %143, align 4, !tbaa !11
  %145 = add i32 %136, %144
  %146 = xor i32 %133, %145
  %147 = lshr i32 %146, 1
  %148 = getelementptr inbounds [4 x i32], ptr %7, i64 0, i64 0
  %149 = load i32, ptr %148, align 16, !tbaa !11
  %150 = load i32, ptr %8, align 4, !tbaa !11
  %151 = load i32, ptr %9, align 4, !tbaa !11
  %152 = add i32 %150, %151
  %153 = load ptr, ptr %4, align 8, !tbaa !4
  %154 = getelementptr inbounds nuw %struct.AVTWOFISH, ptr %153, i32 0, i32 0
  %155 = load i32, ptr %10, align 4, !tbaa !11
  %156 = mul nsw i32 2, %155
  %157 = add nsw i32 %156, 10
  %158 = sext i32 %157 to i64
  %159 = getelementptr inbounds [40 x i32], ptr %154, i64 0, i64 %158
  %160 = load i32, ptr %159, align 4, !tbaa !11
  %161 = add i32 %152, %160
  %162 = xor i32 %149, %161
  %163 = shl i32 %162, 31
  %164 = or i32 %147, %163
  %165 = getelementptr inbounds [4 x i32], ptr %7, i64 0, i64 0
  store i32 %164, ptr %165, align 16, !tbaa !11
  %166 = getelementptr inbounds [4 x i32], ptr %7, i64 0, i64 1
  %167 = load i32, ptr %166, align 4, !tbaa !11
  %168 = shl i32 %167, 1
  %169 = getelementptr inbounds [4 x i32], ptr %7, i64 0, i64 1
  %170 = load i32, ptr %169, align 4, !tbaa !11
  %171 = lshr i32 %170, 31
  %172 = or i32 %168, %171
  %173 = load i32, ptr %8, align 4, !tbaa !11
  %174 = load i32, ptr %9, align 4, !tbaa !11
  %175 = mul i32 2, %174
  %176 = add i32 %173, %175
  %177 = load ptr, ptr %4, align 8, !tbaa !4
  %178 = getelementptr inbounds nuw %struct.AVTWOFISH, ptr %177, i32 0, i32 0
  %179 = load i32, ptr %10, align 4, !tbaa !11
  %180 = mul nsw i32 2, %179
  %181 = add nsw i32 %180, 11
  %182 = sext i32 %181 to i64
  %183 = getelementptr inbounds [40 x i32], ptr %178, i64 0, i64 %182
  %184 = load i32, ptr %183, align 4, !tbaa !11
  %185 = add i32 %176, %184
  %186 = xor i32 %172, %185
  %187 = getelementptr inbounds [4 x i32], ptr %7, i64 0, i64 1
  store i32 %186, ptr %187, align 4, !tbaa !11
  br label %188

188:                                              ; preds = %49
  %189 = load i32, ptr %10, align 4, !tbaa !11
  %190 = add nsw i32 %189, 2
  store i32 %190, ptr %10, align 4, !tbaa !11
  br label %46, !llvm.loop !26

191:                                              ; preds = %46
  %192 = load ptr, ptr %4, align 8, !tbaa !4
  %193 = getelementptr inbounds nuw %struct.AVTWOFISH, ptr %192, i32 0, i32 0
  %194 = getelementptr inbounds [40 x i32], ptr %193, i64 0, i64 4
  %195 = load i32, ptr %194, align 4, !tbaa !11
  %196 = getelementptr inbounds [4 x i32], ptr %7, i64 0, i64 2
  %197 = load i32, ptr %196, align 8, !tbaa !11
  %198 = xor i32 %197, %195
  store i32 %198, ptr %196, align 8, !tbaa !11
  %199 = load ptr, ptr %4, align 8, !tbaa !4
  %200 = getelementptr inbounds nuw %struct.AVTWOFISH, ptr %199, i32 0, i32 0
  %201 = getelementptr inbounds [40 x i32], ptr %200, i64 0, i64 5
  %202 = load i32, ptr %201, align 4, !tbaa !11
  %203 = getelementptr inbounds [4 x i32], ptr %7, i64 0, i64 3
  %204 = load i32, ptr %203, align 4, !tbaa !11
  %205 = xor i32 %204, %202
  store i32 %205, ptr %203, align 4, !tbaa !11
  %206 = load ptr, ptr %4, align 8, !tbaa !4
  %207 = getelementptr inbounds nuw %struct.AVTWOFISH, ptr %206, i32 0, i32 0
  %208 = getelementptr inbounds [40 x i32], ptr %207, i64 0, i64 6
  %209 = load i32, ptr %208, align 4, !tbaa !11
  %210 = getelementptr inbounds [4 x i32], ptr %7, i64 0, i64 0
  %211 = load i32, ptr %210, align 16, !tbaa !11
  %212 = xor i32 %211, %209
  store i32 %212, ptr %210, align 16, !tbaa !11
  %213 = load ptr, ptr %4, align 8, !tbaa !4
  %214 = getelementptr inbounds nuw %struct.AVTWOFISH, ptr %213, i32 0, i32 0
  %215 = getelementptr inbounds [40 x i32], ptr %214, i64 0, i64 7
  %216 = load i32, ptr %215, align 4, !tbaa !11
  %217 = getelementptr inbounds [4 x i32], ptr %7, i64 0, i64 1
  %218 = load i32, ptr %217, align 4, !tbaa !11
  %219 = xor i32 %218, %216
  store i32 %219, ptr %217, align 4, !tbaa !11
  %220 = getelementptr inbounds [4 x i32], ptr %7, i64 0, i64 2
  %221 = load i32, ptr %220, align 8, !tbaa !11
  %222 = load ptr, ptr %5, align 8, !tbaa !9
  store i32 %221, ptr %222, align 1, !tbaa !15
  %223 = getelementptr inbounds [4 x i32], ptr %7, i64 0, i64 3
  %224 = load i32, ptr %223, align 4, !tbaa !11
  %225 = load ptr, ptr %5, align 8, !tbaa !9
  %226 = getelementptr inbounds i8, ptr %225, i64 4
  store i32 %224, ptr %226, align 1, !tbaa !15
  %227 = getelementptr inbounds [4 x i32], ptr %7, i64 0, i64 0
  %228 = load i32, ptr %227, align 16, !tbaa !11
  %229 = load ptr, ptr %5, align 8, !tbaa !9
  %230 = getelementptr inbounds i8, ptr %229, i64 8
  store i32 %228, ptr %230, align 1, !tbaa !15
  %231 = getelementptr inbounds [4 x i32], ptr %7, i64 0, i64 1
  %232 = load i32, ptr %231, align 4, !tbaa !11
  %233 = load ptr, ptr %5, align 8, !tbaa !9
  %234 = getelementptr inbounds i8, ptr %233, i64 12
  store i32 %232, ptr %234, align 1, !tbaa !15
  call void @llvm.lifetime.end.p0(i64 4, ptr %10) #6
  call void @llvm.lifetime.end.p0(i64 4, ptr %9) #6
  call void @llvm.lifetime.end.p0(i64 4, ptr %8) #6
  call void @llvm.lifetime.end.p0(i64 16, ptr %7) #6
  ret void
}