; Function Attrs: nofree norecurse nosync nounwind memory(argmem: readwrite) uwtable
define internal fastcc void @twofish_encrypt(ptr noundef readonly captures(none) %0, ptr noundef writeonly captures(none) %1, ptr noundef readonly captures(none) %2) unnamed_addr #7 {
  %4 = load i32, ptr %2, align 1, !tbaa !9
  %5 = load i32, ptr %0, align 4, !tbaa !10
  %6 = xor i32 %5, %4
  %7 = getelementptr inbounds nuw i8, ptr %2, i64 4
  %8 = load i32, ptr %7, align 1, !tbaa !9
  %9 = getelementptr inbounds nuw i8, ptr %0, i64 4
  %10 = load i32, ptr %9, align 4, !tbaa !10
  %11 = xor i32 %10, %8
  %12 = getelementptr inbounds nuw i8, ptr %2, i64 8
  %13 = load i32, ptr %12, align 1, !tbaa !9
  %14 = getelementptr inbounds nuw i8, ptr %0, i64 8
  %15 = load i32, ptr %14, align 4, !tbaa !10
  %16 = xor i32 %15, %13
  %17 = getelementptr inbounds nuw i8, ptr %2, i64 12
  %18 = load i32, ptr %17, align 1, !tbaa !9
  %19 = getelementptr inbounds nuw i8, ptr %0, i64 12
  %20 = load i32, ptr %19, align 4, !tbaa !10
  %21 = xor i32 %20, %18
  %22 = getelementptr inbounds nuw i8, ptr %0, i64 180
  %23 = getelementptr inbounds nuw i8, ptr %0, i64 1204
  %24 = getelementptr inbounds nuw i8, ptr %0, i64 2228
  %25 = getelementptr inbounds nuw i8, ptr %0, i64 3252
  br label %26

26:                                               ; preds = %3, %26
  %indvars.iv = phi i64 [ 0, %3 ], [ %indvars.iv.next, %26 ]
  %.sroa.27.066 = phi i32 [ %21, %3 ], [ %85, %26 ]
  %.sroa.19.065 = phi i32 [ %16, %3 ], [ %77, %26 ]
  %.sroa.0.064 = phi i32 [ %6, %3 ], [ %135, %26 ]
  %.sroa.10.063 = phi i32 [ %11, %3 ], [ %143, %26 ]
  %27 = and i32 %.sroa.0.064, 255
  %28 = zext nneg i32 %27 to i64
  %29 = getelementptr inbounds nuw [256 x i32], ptr %22, i64 0, i64 %28
  %30 = load i32, ptr %29, align 4, !tbaa !10
  %31 = lshr i32 %.sroa.0.064, 8
  %32 = and i32 %31, 255
  %33 = zext nneg i32 %32 to i64
  %34 = getelementptr inbounds nuw [256 x i32], ptr %23, i64 0, i64 %33
  %35 = load i32, ptr %34, align 4, !tbaa !10
  %36 = xor i32 %35, %30
  %37 = lshr i32 %.sroa.0.064, 16
  %38 = and i32 %37, 255
  %39 = zext nneg i32 %38 to i64
  %40 = getelementptr inbounds nuw [256 x i32], ptr %24, i64 0, i64 %39
  %41 = load i32, ptr %40, align 4, !tbaa !10
  %42 = xor i32 %36, %41
  %43 = lshr i32 %.sroa.0.064, 24
  %44 = zext nneg i32 %43 to i64
  %45 = getelementptr inbounds nuw [256 x i32], ptr %25, i64 0, i64 %44
  %46 = load i32, ptr %45, align 4, !tbaa !10
  %47 = xor i32 %42, %46
  %48 = tail call i32 @llvm.fshl.i32(i32 %.sroa.10.063, i32 %.sroa.10.063, i32 8)
  %49 = and i32 %48, 255
  %50 = zext nneg i32 %49 to i64
  %51 = getelementptr inbounds nuw [256 x i32], ptr %22, i64 0, i64 %50
  %52 = load i32, ptr %51, align 4, !tbaa !10
  %53 = lshr i32 %48, 8
  %54 = and i32 %53, 255
  %55 = zext nneg i32 %54 to i64
  %56 = getelementptr inbounds nuw [256 x i32], ptr %23, i64 0, i64 %55
  %57 = load i32, ptr %56, align 4, !tbaa !10
  %58 = xor i32 %57, %52
  %59 = lshr i32 %48, 16
  %60 = and i32 %59, 255
  %61 = zext nneg i32 %60 to i64
  %62 = getelementptr inbounds nuw [256 x i32], ptr %24, i64 0, i64 %61
  %63 = load i32, ptr %62, align 4, !tbaa !10
  %64 = xor i32 %58, %63
  %65 = lshr i32 %48, 24
  %66 = zext nneg i32 %65 to i64
  %67 = getelementptr inbounds nuw [256 x i32], ptr %25, i64 0, i64 %66
  %68 = load i32, ptr %67, align 4, !tbaa !10
  %69 = xor i32 %64, %68
  %70 = add i32 %69, %47
  %71 = shl nuw nsw i64 %indvars.iv, 1
  %72 = add nuw nsw i64 %71, 8
  %73 = getelementptr inbounds nuw [40 x i32], ptr %0, i64 0, i64 %72
  %74 = load i32, ptr %73, align 4, !tbaa !10
  %75 = add i32 %70, %74
  %76 = xor i32 %75, %.sroa.19.065
  %77 = tail call i32 @llvm.fshl.i32(i32 %76, i32 %76, i32 31)
  %78 = tail call i32 @llvm.fshl.i32(i32 %.sroa.27.066, i32 %.sroa.27.066, i32 1)
  %79 = shl i32 %69, 1
  %80 = add i32 %79, %47
  %81 = add nuw nsw i64 %71, 9
  %82 = getelementptr inbounds nuw [40 x i32], ptr %0, i64 0, i64 %81
  %83 = load i32, ptr %82, align 4, !tbaa !10
  %84 = add i32 %80, %83
  %85 = xor i32 %84, %78
  %86 = and i32 %77, 255
  %87 = zext nneg i32 %86 to i64
  %88 = getelementptr inbounds nuw [256 x i32], ptr %22, i64 0, i64 %87
  %89 = load i32, ptr %88, align 4, !tbaa !10
  %90 = lshr i32 %77, 8
  %91 = and i32 %90, 255
  %92 = zext nneg i32 %91 to i64
  %93 = getelementptr inbounds nuw [256 x i32], ptr %23, i64 0, i64 %92
  %94 = load i32, ptr %93, align 4, !tbaa !10
  %95 = xor i32 %94, %89
  %96 = lshr i32 %77, 16
  %97 = and i32 %96, 255
  %98 = zext nneg i32 %97 to i64
  %99 = getelementptr inbounds nuw [256 x i32], ptr %24, i64 0, i64 %98
  %100 = load i32, ptr %99, align 4, !tbaa !10
  %101 = xor i32 %95, %100
  %102 = lshr i32 %77, 24
  %103 = zext nneg i32 %102 to i64
  %104 = getelementptr inbounds nuw [256 x i32], ptr %25, i64 0, i64 %103
  %105 = load i32, ptr %104, align 4, !tbaa !10
  %106 = xor i32 %101, %105
  %107 = tail call i32 @llvm.fshl.i32(i32 %85, i32 %85, i32 8)
  %108 = and i32 %107, 255
  %109 = zext nneg i32 %108 to i64
  %110 = getelementptr inbounds nuw [256 x i32], ptr %22, i64 0, i64 %109
  %111 = load i32, ptr %110, align 4, !tbaa !10
  %112 = lshr i32 %107, 8
  %113 = and i32 %112, 255
  %114 = zext nneg i32 %113 to i64
  %115 = getelementptr inbounds nuw [256 x i32], ptr %23, i64 0, i64 %114
  %116 = load i32, ptr %115, align 4, !tbaa !10
  %117 = xor i32 %116, %111
  %118 = lshr i32 %107, 16
  %119 = and i32 %118, 255
  %120 = zext nneg i32 %119 to i64
  %121 = getelementptr inbounds nuw [256 x i32], ptr %24, i64 0, i64 %120
  %122 = load i32, ptr %121, align 4, !tbaa !10
  %123 = xor i32 %117, %122
  %124 = lshr i32 %107, 24
  %125 = zext nneg i32 %124 to i64
  %126 = getelementptr inbounds nuw [256 x i32], ptr %25, i64 0, i64 %125
  %127 = load i32, ptr %126, align 4, !tbaa !10
  %128 = xor i32 %123, %127
  %129 = add i32 %128, %106
  %130 = add nuw nsw i64 %71, 10
  %131 = getelementptr inbounds nuw [40 x i32], ptr %0, i64 0, i64 %130
  %132 = load i32, ptr %131, align 4, !tbaa !10
  %133 = add i32 %129, %132
  %134 = xor i32 %133, %.sroa.0.064
  %135 = tail call i32 @llvm.fshl.i32(i32 %134, i32 %134, i32 31)
  %136 = tail call i32 @llvm.fshl.i32(i32 %.sroa.10.063, i32 %.sroa.10.063, i32 1)
  %137 = shl i32 %128, 1
  %138 = add i32 %137, %106
  %139 = add nuw nsw i64 %71, 11
  %140 = getelementptr inbounds nuw [40 x i32], ptr %0, i64 0, i64 %139
  %141 = load i32, ptr %140, align 4, !tbaa !10
  %142 = add i32 %138, %141
  %143 = xor i32 %142, %136
  %indvars.iv.next = add nuw nsw i64 %indvars.iv, 2
  %144 = icmp samesign ult i64 %indvars.iv, 14
  br i1 %144, label %26, label %145, !llvm.loop !19

145:                                              ; preds = %26
  %146 = getelementptr inbounds nuw i8, ptr %0, i64 16
  %147 = load i32, ptr %146, align 4, !tbaa !10
  %148 = xor i32 %147, %77
  %149 = getelementptr inbounds nuw i8, ptr %0, i64 20
  %150 = load i32, ptr %149, align 4, !tbaa !10
  %151 = xor i32 %150, %85
  %152 = getelementptr inbounds nuw i8, ptr %0, i64 24
  %153 = load i32, ptr %152, align 4, !tbaa !10
  %154 = xor i32 %153, %135
  %155 = getelementptr inbounds nuw i8, ptr %0, i64 28
  %156 = load i32, ptr %155, align 4, !tbaa !10
  %157 = xor i32 %156, %143
  store i32 %148, ptr %1, align 1, !tbaa !9
  %158 = getelementptr inbounds nuw i8, ptr %1, i64 4
  store i32 %151, ptr %158, align 1, !tbaa !9
  %159 = getelementptr inbounds nuw i8, ptr %1, i64 8
  store i32 %154, ptr %159, align 1, !tbaa !9
  %160 = getelementptr inbounds nuw i8, ptr %1, i64 12
  store i32 %157, ptr %160, align 1, !tbaa !9
  ret void
}